; Function Attrs: nounwind uwtable
define internal fastcc noundef zeroext i1 @virtqueue_map_desc(ptr noundef %0, ptr noundef nonnull captures(none) %1, ptr noundef nonnull writeonly captures(none) %2, i32 noundef %3, i64 noundef %4, i64 noundef range(i64 0, 4294967296) %5) unnamed_addr #3 {
  %7 = load i32, ptr %1, align 4
  %.not = icmp ugt i32 %7, %3
  br i1 %.not, label %8, label %9

8:                                                ; preds = %6
  tail call void @__assert_fail(ptr noundef nonnull @.str.105, ptr noundef nonnull @.str.40, i32 noundef 2733, ptr noundef nonnull @__PRETTY_FUNCTION__.virtqueue_map_desc) #23
  unreachable

9:                                                ; preds = %6
  %.not35 = icmp eq i64 %5, 0
  br i1 %.not35, label %12, label %.preheader

.preheader:                                       ; preds = %9
  %10 = getelementptr inbounds nuw i8, ptr %0, i64 4
  %11 = getelementptr inbounds nuw i8, ptr %0, i64 8
  br label %13

12:                                               ; preds = %9
  tail call void (ptr, ptr, ...) @vu_panic(ptr noundef %0, ptr noundef nonnull @.str.106)
  br label %.thread

13:                                               ; preds = %.preheader, %44
  %.02557 = phi i32 [ %7, %.preheader ], [ %49, %44 ]
  %.02656 = phi i64 [ %5, %.preheader ], [ %50, %44 ]
  %.02855 = phi i64 [ %4, %.preheader ], [ %51, %44 ]
  %14 = icmp eq i32 %.02557, %3
  br i1 %14, label %15, label %16

15:                                               ; preds = %13
  tail call void (ptr, ptr, ...) @vu_panic(ptr noundef %0, ptr noundef nonnull @.str.107)
  br label %.thread

16:                                               ; preds = %13
  %17 = load i32, ptr %10, align 4
  %18 = add i32 %17, -1
  %.not37.i.i = icmp slt i32 %18, 0
  br i1 %.not37.i.i, label %vu_gpa_to_va.exit.thread, label %.lr.ph.i.i

.lr.ph.i.i:                                       ; preds = %16
  %19 = load ptr, ptr %11, align 8
  br label %20

20:                                               ; preds = %._crit_edge.i.i, %.lr.ph.i.i
  %.02339.i.i = phi i32 [ 0, %.lr.ph.i.i ], [ %spec.select.i.i, %._crit_edge.i.i ]
  %.02638.i.i = phi i32 [ %18, %.lr.ph.i.i ], [ %.228.i.i, %._crit_edge.i.i ]
  %21 = sub i32 %.02638.i.i, %.02339.i.i
  %22 = sdiv i32 %21, 2
  %23 = add i32 %22, %.02339.i.i
  %24 = zext i32 %23 to i64
  %25 = getelementptr inbounds nuw %struct.VuDevRegion, ptr %19, i64 %24
  %26 = load i64, ptr %25, align 8
  %.not31.i.i = icmp uge i64 %.02855, %26
  %.phi.trans.insert.i.i = getelementptr inbounds nuw i8, ptr %25, i64 8
  %.pre.i.i = load i64, ptr %.phi.trans.insert.i.i, align 8
  %.pre42.i.i = add i64 %.pre.i.i, %26
  %27 = icmp ult i64 %.02855, %.pre42.i.i
  %or.cond.i.i = select i1 %.not31.i.i, i1 %27, i1 false
  br i1 %or.cond.i.i, label %vu_gpa_to_mem_region.exit.i, label %._crit_edge.i.i

._crit_edge.i.i:                                  ; preds = %20
  %28 = add i32 %23, 1
  %spec.select.i.i = select i1 %27, i32 %.02339.i.i, i32 %28
  %29 = add i32 %23, -1
  %.228.i.i = select i1 %.not31.i.i, i32 %.02638.i.i, i32 %29
  %.not.i.i = icmp sgt i32 %spec.select.i.i, %.228.i.i
  br i1 %.not.i.i, label %vu_gpa_to_va.exit.thread, label %20

vu_gpa_to_mem_region.exit.i:                      ; preds = %20
  %30 = inttoptr i64 %.02855 to ptr
  %31 = sub i64 0, %26
  %32 = getelementptr inbounds i8, ptr %30, i64 %31
  %33 = getelementptr inbounds nuw i8, ptr %25, i64 32
  %34 = load i64, ptr %33, align 8
  %35 = getelementptr inbounds nuw i8, ptr %32, i64 %34
  %36 = getelementptr inbounds nuw i8, ptr %25, i64 24
  %37 = load i64, ptr %36, align 8
  %38 = getelementptr inbounds nuw i8, ptr %35, i64 %37
  %39 = zext i32 %.02557 to i64
  %40 = getelementptr inbounds nuw %struct.iovec, ptr %2, i64 %39
  store ptr %38, ptr %40, align 8
  %41 = icmp eq i64 %.02855, 0
  br i1 %41, label %.loopexit, label %44

vu_gpa_to_va.exit.thread:                         ; preds = %16, %._crit_edge.i.i
  %42 = zext i32 %.02557 to i64
  %43 = getelementptr inbounds nuw %struct.iovec, ptr %2, i64 %42
  store ptr null, ptr %43, align 8
  br label %.loopexit

.loopexit:                                        ; preds = %vu_gpa_to_mem_region.exit.i, %vu_gpa_to_va.exit.thread
  tail call void (ptr, ptr, ...) @vu_panic(ptr noundef %0, ptr noundef nonnull @.str.108)
  br label %.thread

44:                                               ; preds = %vu_gpa_to_mem_region.exit.i
  %45 = add i64 %.02656, %.02855
  %46 = icmp ugt i64 %45, %.pre42.i.i
  %47 = sub nuw i64 %.pre42.i.i, %.02855
  %spec.select = select i1 %46, i64 %47, i64 %.02656
  %48 = getelementptr inbounds nuw i8, ptr %40, i64 8
  store i64 %spec.select, ptr %48, align 8
  %49 = add i32 %.02557, 1
  %50 = sub i64 %.02656, %spec.select
  %51 = add i64 %spec.select, %.02855
  %.not36 = icmp eq i64 %50, 0
  br i1 %.not36, label %52, label %13

52:                                               ; preds = %44
  store i32 %49, ptr %1, align 4
  br label %.thread

.thread:                                          ; preds = %.loopexit, %15, %52, %12
  %.030 = phi i1 [ true, %52 ], [ false, %12 ], [ false, %15 ], [ false, %.loopexit ]
  ret i1 %.030
}